target datalayout = "e-m:e-p270:32:32-p271:32:32-p272:64:64-i64:64-i128:128-f80:128-n8:16:32:64-S128"
target triple = "x86_64-pc-linux-gnu"

%struct._lv_spinbox_t = type { %struct._lv_textarea_t, i32, i32, i32, i32, i16 }
%struct._lv_textarea_t = type { %struct._lv_obj_t, ptr, ptr, ptr, ptr, ptr, i32, i32, %struct.anon, i32, i32, i8 }
%struct._lv_obj_t = type { ptr, ptr, ptr, ptr, ptr, %struct.lv_area_t, i32, i16, i16 }
%struct.lv_area_t = type { i32, i32, i32, i32 }
%struct.anon = type { i32, i32, %struct.lv_area_t, i32, i8 }

; Function Attrs: nounwind uwtable
define void @lv_spinbox_step_prev(ptr noundef %0) #0 {
  %2 = alloca ptr, align 8
  %3 = alloca ptr, align 8
  %4 = alloca i32, align 4
  %5 = alloca i32, align 4
  store ptr %0, ptr %2, align 8, !tbaa !3
  br label %6

6:                                                ; preds = %1
  br label %7

7:                                                ; preds = %6
  call void @llvm.lifetime.start.p0(i64 8, ptr %3) #4
  %8 = load ptr, ptr %2, align 8, !tbaa !3
  store ptr %8, ptr %3, align 8, !tbaa !3
  call void @llvm.lifetime.start.p0(i64 4, ptr %4) #4
  %9 = load ptr, ptr %3, align 8, !tbaa !3
  %10 = getelementptr inbounds nuw %struct._lv_spinbox_t, ptr %9, i32 0, i32 2
  %11 = load i32, ptr %10, align 4, !tbaa !16
  %12 = load ptr, ptr %3, align 8, !tbaa !3
  %13 = getelementptr inbounds nuw %struct._lv_spinbox_t, ptr %12, i32 0, i32 3
  %14 = load i32, ptr %13, align 8, !tbaa !17
  %15 = icmp sgt i32 %14, 0
  br i1 %15, label %16, label %20

16:                                               ; preds = %7
  %17 = load ptr, ptr %3, align 8, !tbaa !3
  %18 = getelementptr inbounds nuw %struct._lv_spinbox_t, ptr %17, i32 0, i32 3
  %19 = load i32, ptr %18, align 8, !tbaa !17
  br label %25

20:                                               ; preds = %7
  %21 = load ptr, ptr %3, align 8, !tbaa !3
  %22 = getelementptr inbounds nuw %struct._lv_spinbox_t, ptr %21, i32 0, i32 3
  %23 = load i32, ptr %22, align 8, !tbaa !17
  %24 = sub nsw i32 0, %23
  br label %25

25:                                               ; preds = %20, %16
  %26 = phi i32 [ %19, %16 ], [ %24, %20 ]
  %27 = icmp sgt i32 %11, %26
  br i1 %27, label %28, label %32

28:                                               ; preds = %25
  %29 = load ptr, ptr %3, align 8, !tbaa !3
  %30 = getelementptr inbounds nuw %struct._lv_spinbox_t, ptr %29, i32 0, i32 2
  %31 = load i32, ptr %30, align 4, !tbaa !16
  br label %48

32:                                               ; preds = %25
  %33 = load ptr, ptr %3, align 8, !tbaa !3
  %34 = getelementptr inbounds nuw %struct._lv_spinbox_t, ptr %33, i32 0, i32 3
  %35 = load i32, ptr %34, align 8, !tbaa !17
  %36 = icmp sgt i32 %35, 0
  br i1 %36, label %37, label %41

37:                                               ; preds = %32
  %38 = load ptr, ptr %3, align 8, !tbaa !3
  %39 = getelementptr inbounds nuw %struct._lv_spinbox_t, ptr %38, i32 0, i32 3
  %40 = load i32, ptr %39, align 8, !tbaa !17
  br label %46

41:                                               ; preds = %32
  %42 = load ptr, ptr %3, align 8, !tbaa !3
  %43 = getelementptr inbounds nuw %struct._lv_spinbox_t, ptr %42, i32 0, i32 3
  %44 = load i32, ptr %43, align 8, !tbaa !17
  %45 = sub nsw i32 0, %44
  br label %46

46:                                               ; preds = %41, %37
  %47 = phi i32 [ %40, %37 ], [ %45, %41 ]
  br label %48

48:                                               ; preds = %46, %28
  %49 = phi i32 [ %31, %28 ], [ %47, %46 ]
  store i32 %49, ptr %4, align 4, !tbaa !18
  call void @llvm.lifetime.start.p0(i64 4, ptr %5) #4
  %50 = load ptr, ptr %3, align 8, !tbaa !3
  %51 = getelementptr inbounds nuw %struct._lv_spinbox_t, ptr %50, i32 0, i32 4
  %52 = load i32, ptr %51, align 4, !tbaa !15
  %53 = mul nsw i32 %52, 10
  store i32 %53, ptr %5, align 4, !tbaa !18
  %54 = load i32, ptr %5, align 4, !tbaa !18
  %55 = load i32, ptr %4, align 4, !tbaa !18
  %56 = icmp sle i32 %54, %55
  br i1 %56, label %57, label %61

57:                                               ; preds = %48
  %58 = load i32, ptr %5, align 4, !tbaa !18
  %59 = load ptr, ptr %3, align 8, !tbaa !3
  %60 = getelementptr inbounds nuw %struct._lv_spinbox_t, ptr %59, i32 0, i32 4
  store i32 %58, ptr %60, align 4, !tbaa !15
  br label %61

61:                                               ; preds = %57, %48
  %62 = load ptr, ptr %2, align 8, !tbaa !3
  call void @lv_spinbox_updatevalue(ptr noundef %62)
  call void @llvm.lifetime.end.p0(i64 4, ptr %5) #4
  call void @llvm.lifetime.end.p0(i64 4, ptr %4) #4
  call void @llvm.lifetime.end.p0(i64 8, ptr %3) #4
  ret void
}