; Function Attrs: nounwind uwtable
define void @lv_spinbox_step_prev(ptr noundef %0) local_unnamed_addr #0 {
  %2 = getelementptr inbounds nuw i8, ptr %0, i64 164
  %3 = load i32, ptr %2, align 4, !tbaa !15
  %4 = getelementptr inbounds nuw i8, ptr %0, i64 168
  %5 = load i32, ptr %4, align 8, !tbaa !16
  %6 = tail call i32 @llvm.abs.i32(i32 %5, i1 true)
  %spec.select = tail call i32 @llvm.smax.i32(i32 %3, i32 %6)
  %7 = getelementptr inbounds nuw i8, ptr %0, i64 172
  %8 = load i32, ptr %7, align 4, !tbaa !14
  %9 = mul nsw i32 %8, 10
  %.not = icmp sgt i32 %9, %spec.select
  br i1 %.not, label %11, label %10

10:                                               ; preds = %1
  store i32 %9, ptr %7, align 4, !tbaa !14
  br label %11

11:                                               ; preds = %10, %1
  tail call fastcc void @lv_spinbox_updatevalue(ptr noundef nonnull %0)
  ret void
}